target datalayout = "e-m:e-p270:32:32-p271:32:32-p272:64:64-i64:64-i128:128-f80:128-n8:16:32:64-S128"
target triple = "x86_64-pc-linux-gnu"

%struct.JNINativeInterface_ = type { ptr, ptr, ptr, ptr, ptr, ptr, ptr, ptr, ptr, ptr, ptr, ptr, ptr, ptr, ptr, ptr, ptr, ptr, ptr, ptr, ptr, ptr, ptr, ptr, ptr, ptr, ptr, ptr, ptr, ptr, ptr, ptr, ptr, ptr, ptr, ptr, ptr, ptr, ptr, ptr, ptr, ptr, ptr, ptr, ptr, ptr, ptr, ptr, ptr, ptr, ptr, ptr, ptr, ptr, ptr, ptr, ptr, ptr, ptr, ptr, ptr, ptr, ptr, ptr, ptr, ptr, ptr, ptr, ptr, ptr, ptr, ptr, ptr, ptr, ptr, ptr, ptr, ptr, ptr, ptr, ptr, ptr, ptr, ptr, ptr, ptr, ptr, ptr, ptr, ptr, ptr, ptr, ptr, ptr, ptr, ptr, ptr, ptr, ptr, ptr, ptr, ptr, ptr, ptr, ptr, ptr, ptr, ptr, ptr, ptr, ptr, ptr, ptr, ptr, ptr, ptr, ptr, ptr, ptr, ptr, ptr, ptr, ptr, ptr, ptr, ptr, ptr, ptr, ptr, ptr, ptr, ptr, ptr, ptr, ptr, ptr, ptr, ptr, ptr, ptr, ptr, ptr, ptr, ptr, ptr, ptr, ptr, ptr, ptr, ptr, ptr, ptr, ptr, ptr, ptr, ptr, ptr, ptr, ptr, ptr, ptr, ptr, ptr, ptr, ptr, ptr, ptr, ptr, ptr, ptr, ptr, ptr, ptr, ptr, ptr, ptr, ptr, ptr, ptr, ptr, ptr, ptr, ptr, ptr, ptr, ptr, ptr, ptr, ptr, ptr, ptr, ptr, ptr, ptr, ptr, ptr, ptr, ptr, ptr, ptr, ptr, ptr, ptr, ptr, ptr, ptr, ptr, ptr, ptr, ptr, ptr, ptr, ptr, ptr, ptr, ptr, ptr, ptr, ptr, ptr, ptr, ptr, ptr, ptr, ptr, ptr, ptr, ptr, ptr, ptr, ptr, ptr, ptr, ptr, ptr }
%struct.tag_ControlCreatorJNI = type { %struct.tag_PortControlCreator, ptr, ptr, ptr, ptr, ptr, ptr, ptr, ptr, ptr, ptr, ptr }
%struct.tag_PortControlCreator = type { ptr, ptr, ptr, ptr }

@.str = private unnamed_addr constant [39 x i8] c"com/sun/media/sound/PortMixer$BoolCtrl\00", align 1
@.str.1 = private unnamed_addr constant [7 x i8] c"<init>\00", align 1
@.str.2 = private unnamed_addr constant [23 x i8] c"(JLjava/lang/String;)V\00", align 1
@.str.3 = private unnamed_addr constant [5 x i8] c"Mute\00", align 1
@.str.4 = private unnamed_addr constant [7 x i8] c"Select\00", align 1

; Function Attrs: nounwind uwtable
define hidden ptr @PORT_NewBooleanControl(ptr noundef %0, ptr noundef %1, ptr noundef %2) #0 {
  %4 = alloca ptr, align 8
  %5 = alloca ptr, align 8
  %6 = alloca ptr, align 8
  %7 = alloca ptr, align 8
  %8 = alloca ptr, align 8
  %9 = alloca ptr, align 8
  %10 = alloca ptr, align 8
  store ptr %0, ptr %5, align 8
  store ptr %1, ptr %6, align 8
  store ptr %2, ptr %7, align 8
  %11 = load ptr, ptr %5, align 8
  store ptr %11, ptr %8, align 8
  store ptr null, ptr %9, align 8
  %12 = load ptr, ptr %8, align 8
  %13 = getelementptr inbounds %struct.tag_ControlCreatorJNI, ptr %12, i32 0, i32 4
  %14 = load ptr, ptr %13, align 8
  %15 = icmp ne ptr %14, null
  br i1 %15, label %56, label %16

16:                                               ; preds = %3
  %17 = load ptr, ptr %8, align 8
  %18 = getelementptr inbounds %struct.tag_ControlCreatorJNI, ptr %17, i32 0, i32 1
  %19 = load ptr, ptr %18, align 8
  %20 = load ptr, ptr %19, align 8
  %21 = getelementptr inbounds %struct.JNINativeInterface_, ptr %20, i32 0, i32 6
  %22 = load ptr, ptr %21, align 8
  %23 = load ptr, ptr %8, align 8
  %24 = getelementptr inbounds %struct.tag_ControlCreatorJNI, ptr %23, i32 0, i32 1
  %25 = load ptr, ptr %24, align 8
  %26 = call ptr %22(ptr noundef %25, ptr noundef @.str)
  %27 = load ptr, ptr %8, align 8
  %28 = getelementptr inbounds %struct.tag_ControlCreatorJNI, ptr %27, i32 0, i32 4
  store ptr %26, ptr %28, align 8
  %29 = load ptr, ptr %8, align 8
  %30 = getelementptr inbounds %struct.tag_ControlCreatorJNI, ptr %29, i32 0, i32 4
  %31 = load ptr, ptr %30, align 8
  %32 = icmp ne ptr %31, null
  br i1 %32, label %34, label %33

33:                                               ; preds = %16
  store ptr null, ptr %4, align 8
  br label %121

34:                                               ; preds = %16
  %35 = load ptr, ptr %8, align 8
  %36 = getelementptr inbounds %struct.tag_ControlCreatorJNI, ptr %35, i32 0, i32 1
  %37 = load ptr, ptr %36, align 8
  %38 = load ptr, ptr %37, align 8
  %39 = getelementptr inbounds %struct.JNINativeInterface_, ptr %38, i32 0, i32 33
  %40 = load ptr, ptr %39, align 8
  %41 = load ptr, ptr %8, align 8
  %42 = getelementptr inbounds %struct.tag_ControlCreatorJNI, ptr %41, i32 0, i32 1
  %43 = load ptr, ptr %42, align 8
  %44 = load ptr, ptr %8, align 8
  %45 = getelementptr inbounds %struct.tag_ControlCreatorJNI, ptr %44, i32 0, i32 4
  %46 = load ptr, ptr %45, align 8
  %47 = call ptr %40(ptr noundef %43, ptr noundef %46, ptr noundef @.str.1, ptr noundef @.str.2)
  %48 = load ptr, ptr %8, align 8
  %49 = getelementptr inbounds %struct.tag_ControlCreatorJNI, ptr %48, i32 0, i32 5
  store ptr %47, ptr %49, align 8
  %50 = load ptr, ptr %8, align 8
  %51 = getelementptr inbounds %struct.tag_ControlCreatorJNI, ptr %50, i32 0, i32 5
  %52 = load ptr, ptr %51, align 8
  %53 = icmp ne ptr %52, null
  br i1 %53, label %55, label %54

54:                                               ; preds = %34
  store ptr null, ptr %4, align 8
  br label %121

55:                                               ; preds = %34
  br label %56

56:                                               ; preds = %55, %3
  %57 = load ptr, ptr %7, align 8
  %58 = icmp eq ptr %57, inttoptr (i64 1 to ptr)
  br i1 %58, label %59, label %60

59:                                               ; preds = %56
  store ptr @.str.3, ptr %7, align 8
  br label %65

60:                                               ; preds = %56
  %61 = load ptr, ptr %7, align 8
  %62 = icmp eq ptr %61, inttoptr (i64 2 to ptr)
  br i1 %62, label %63, label %64

63:                                               ; preds = %60
  store ptr @.str.4, ptr %7, align 8
  br label %64

64:                                               ; preds = %63, %60
  br label %65

65:                                               ; preds = %64, %59
  %66 = load ptr, ptr %8, align 8
  %67 = getelementptr inbounds %struct.tag_ControlCreatorJNI, ptr %66, i32 0, i32 1
  %68 = load ptr, ptr %67, align 8
  %69 = load ptr, ptr %68, align 8
  %70 = getelementptr inbounds %struct.JNINativeInterface_, ptr %69, i32 0, i32 167
  %71 = load ptr, ptr %70, align 8
  %72 = load ptr, ptr %8, align 8
  %73 = getelementptr inbounds %struct.tag_ControlCreatorJNI, ptr %72, i32 0, i32 1
  %74 = load ptr, ptr %73, align 8
  %75 = load ptr, ptr %7, align 8
  %76 = call ptr %71(ptr noundef %74, ptr noundef %75)
  store ptr %76, ptr %10, align 8
  br label %77

77:                                               ; preds = %65
  %78 = load ptr, ptr %10, align 8
  %79 = icmp eq ptr %78, null
  br i1 %79, label %80, label %82

80:                                               ; preds = %77
  %81 = load ptr, ptr %9, align 8
  store ptr %81, ptr %4, align 8
  br label %121

82:                                               ; preds = %77
  br label %83

83:                                               ; preds = %82
  %84 = load ptr, ptr %8, align 8
  %85 = getelementptr inbounds %struct.tag_ControlCreatorJNI, ptr %84, i32 0, i32 1
  %86 = load ptr, ptr %85, align 8
  %87 = load ptr, ptr %86, align 8
  %88 = getelementptr inbounds %struct.JNINativeInterface_, ptr %87, i32 0, i32 28
  %89 = load ptr, ptr %88, align 8
  %90 = load ptr, ptr %8, align 8
  %91 = getelementptr inbounds %struct.tag_ControlCreatorJNI, ptr %90, i32 0, i32 1
  %92 = load ptr, ptr %91, align 8
  %93 = load ptr, ptr %8, align 8
  %94 = getelementptr inbounds %struct.tag_ControlCreatorJNI, ptr %93, i32 0, i32 4
  %95 = load ptr, ptr %94, align 8
  %96 = load ptr, ptr %8, align 8
  %97 = getelementptr inbounds %struct.tag_ControlCreatorJNI, ptr %96, i32 0, i32 5
  %98 = load ptr, ptr %97, align 8
  %99 = load ptr, ptr %6, align 8
  %100 = ptrtoint ptr %99 to i64
  %101 = load ptr, ptr %10, align 8
  %102 = call ptr (ptr, ptr, ptr, ...) %89(ptr noundef %92, ptr noundef %95, ptr noundef %98, i64 noundef %100, ptr noundef %101)
  store ptr %102, ptr %9, align 8
  %103 = load ptr, ptr %9, align 8
  %104 = icmp ne ptr %103, null
  br i1 %104, label %106, label %105

105:                                              ; preds = %83
  br label %106

106:                                              ; preds = %105, %83
  %107 = load ptr, ptr %8, align 8
  %108 = getelementptr inbounds %struct.tag_ControlCreatorJNI, ptr %107, i32 0, i32 1
  %109 = load ptr, ptr %108, align 8
  %110 = load ptr, ptr %109, align 8
  %111 = getelementptr inbounds %struct.JNINativeInterface_, ptr %110, i32 0, i32 15
  %112 = load ptr, ptr %111, align 8
  %113 = load ptr, ptr %8, align 8
  %114 = getelementptr inbounds %struct.tag_ControlCreatorJNI, ptr %113, i32 0, i32 1
  %115 = load ptr, ptr %114, align 8
  %116 = call ptr %112(ptr noundef %115)
  %117 = icmp ne ptr %116, null
  br i1 %117, label %118, label %119

118:                                              ; preds = %106
  br label %119

119:                                              ; preds = %118, %106
  %120 = load ptr, ptr %9, align 8
  store ptr %120, ptr %4, align 8
  br label %121

121:                                              ; preds = %119, %80, %54, %33
  %122 = load ptr, ptr %4, align 8
  ret ptr %122
}