; Function Attrs: nounwind uwtable
define hidden ptr @PORT_NewBooleanControl(ptr nocapture noundef %0, ptr noundef %1, ptr noundef %2) #0 {
  %4 = getelementptr inbounds i8, ptr %0, i64 56
  %5 = load ptr, ptr %4, align 8
  %.not = icmp eq ptr %5, null
  br i1 %.not, label %6, label %20

6:                                                ; preds = %3
  %7 = getelementptr inbounds i8, ptr %0, i64 32
  %8 = load ptr, ptr %7, align 8
  %9 = load ptr, ptr %8, align 8
  %10 = getelementptr inbounds i8, ptr %9, i64 48
  %11 = load ptr, ptr %10, align 8
  %12 = tail call ptr %11(ptr noundef nonnull %8, ptr noundef nonnull @.str) #3
  store ptr %12, ptr %4, align 8
  %.not33 = icmp eq ptr %12, null
  br i1 %.not33, label %45, label %13

13:                                               ; preds = %6
  %14 = load ptr, ptr %7, align 8
  %15 = load ptr, ptr %14, align 8
  %16 = getelementptr inbounds i8, ptr %15, i64 264
  %17 = load ptr, ptr %16, align 8
  %18 = tail call ptr %17(ptr noundef nonnull %14, ptr noundef nonnull %12, ptr noundef nonnull @.str.1, ptr noundef nonnull @.str.2) #3
  %19 = getelementptr inbounds i8, ptr %0, i64 64
  store ptr %18, ptr %19, align 8
  %.not34 = icmp eq ptr %18, null
  br i1 %.not34, label %45, label %20

20:                                               ; preds = %13, %3
  %21 = icmp eq ptr %2, inttoptr (i64 1 to ptr)
  %22 = icmp eq ptr %2, inttoptr (i64 2 to ptr)
  %spec.store.select = select i1 %22, ptr @.str.4, ptr %2
  %.029 = select i1 %21, ptr @.str.3, ptr %spec.store.select
  %23 = getelementptr inbounds i8, ptr %0, i64 32
  %24 = load ptr, ptr %23, align 8
  %25 = load ptr, ptr %24, align 8
  %26 = getelementptr inbounds i8, ptr %25, i64 1336
  %27 = load ptr, ptr %26, align 8
  %28 = tail call ptr %27(ptr noundef nonnull %24, ptr noundef %.029) #3
  %29 = icmp eq ptr %28, null
  br i1 %29, label %45, label %30

30:                                               ; preds = %20
  %31 = load ptr, ptr %23, align 8
  %32 = load ptr, ptr %31, align 8
  %33 = getelementptr inbounds i8, ptr %32, i64 224
  %34 = load ptr, ptr %33, align 8
  %35 = load ptr, ptr %4, align 8
  %36 = getelementptr inbounds i8, ptr %0, i64 64
  %37 = load ptr, ptr %36, align 8
  %38 = ptrtoint ptr %1 to i64
  %39 = tail call ptr (ptr, ptr, ptr, ...) %34(ptr noundef nonnull %31, ptr noundef %35, ptr noundef %37, i64 noundef %38, ptr noundef nonnull %28) #3
  %40 = load ptr, ptr %23, align 8
  %41 = load ptr, ptr %40, align 8
  %42 = getelementptr inbounds i8, ptr %41, i64 120
  %43 = load ptr, ptr %42, align 8
  %44 = tail call ptr %43(ptr noundef nonnull %40) #3
  br label %45

45:                                               ; preds = %20, %13, %6, %30
  %.0 = phi ptr [ %39, %30 ], [ null, %6 ], [ null, %13 ], [ null, %20 ]
  ret ptr %.0
}